; Function Attrs: inlinehint nounwind uwtable
define hidden noalias ptr @mi_heap_calloc(ptr noundef %0, i64 noundef %1, i64 noundef %2) local_unnamed_addr #0 {
  %.not = icmp eq i64 %1, 1
  br i1 %.not, label %8, label %4

4:                                                ; preds = %3
  %5 = tail call { i64, i1 } @llvm.umul.with.overflow.i64(i64 range(i64 2, 1) %1, i64 %2)
  %6 = extractvalue { i64, i1 } %5, 1
  %7 = extractvalue { i64, i1 } %5, 0
  br i1 %6, label %mi_count_size_overflow.exit, label %8, !prof !17

8:                                                ; preds = %4, %3
  %storemerge.i.ph = phi i64 [ %2, %3 ], [ %7, %4 ]
  %9 = icmp ult i64 %storemerge.i.ph, 1025
  br i1 %9, label %10, label %33, !prof !8

10:                                               ; preds = %8
  %11 = add nuw nsw i64 %storemerge.i.ph, 7
  %12 = lshr i64 %11, 3
  %13 = getelementptr inbounds nuw i8, ptr %0, i64 232
  %14 = getelementptr inbounds nuw [129 x ptr], ptr %13, i64 0, i64 %12
  %15 = load ptr, ptr %14, align 8, !tbaa !9
  %16 = getelementptr inbounds nuw i8, ptr %15, i64 8
  %17 = load ptr, ptr %16, align 8, !tbaa !11
  %18 = icmp eq ptr %17, null
  br i1 %18, label %19, label %21, !prof !17

19:                                               ; preds = %10
  %20 = tail call noalias ptr @_mi_malloc_generic(ptr noundef nonnull %0, i64 noundef %storemerge.i.ph, i1 noundef zeroext true, i64 noundef 0) #19
  br label %mi_count_size_overflow.exit

21:                                               ; preds = %10
  %.val.i.i.i.i.i = load i64, ptr %17, align 8, !tbaa !18
  %22 = inttoptr i64 %.val.i.i.i.i.i to ptr
  store ptr %22, ptr %16, align 8, !tbaa !11
  %23 = getelementptr inbounds nuw i8, ptr %15, i64 24
  %24 = load i16, ptr %23, align 8, !tbaa !20
  %25 = add i16 %24, 1
  store i16 %25, ptr %23, align 8, !tbaa !20
  %26 = getelementptr inbounds nuw i8, ptr %15, i64 7
  %27 = load i8, ptr %26, align 1
  %28 = and i8 %27, 1
  %.not.i.i.i.i.i = icmp eq i8 %28, 0
  br i1 %.not.i.i.i.i.i, label %30, label %29

29:                                               ; preds = %21
  store i64 0, ptr %17, align 8, !tbaa !18
  br label %mi_count_size_overflow.exit

30:                                               ; preds = %21
  %31 = getelementptr inbounds nuw i8, ptr %15, i64 32
  %32 = load i64, ptr %31, align 8, !tbaa !21
  call void @llvm.assume(i1 true) [ "align"(ptr %17, i64 8) ]
  tail call void @llvm.memset.p0.i64(ptr nonnull align 8 %17, i8 0, i64 %32, i1 false)
  br label %mi_count_size_overflow.exit

33:                                               ; preds = %8
  %34 = tail call noalias ptr @_mi_malloc_generic(ptr noundef %0, i64 noundef %storemerge.i.ph, i1 noundef zeroext true, i64 noundef 0) #19
  br label %mi_count_size_overflow.exit

mi_count_size_overflow.exit:                      ; preds = %33, %30, %29, %19, %4
  %.0 = phi ptr [ null, %4 ], [ %34, %33 ], [ %20, %19 ], [ %17, %29 ], [ %17, %30 ]
  ret ptr %.0
}